target datalayout = "e-m:e-p270:32:32-p271:32:32-p272:64:64-i64:64-i128:128-f80:128-n8:16:32:64-S128"
target triple = "x86_64-pc-linux-gnu"

%struct.If_Cut_t_ = type <{ float, float, float, float, i32, i32, i32, i64, [0 x i32] }>
%struct.If_Man_t_ = type { ptr, ptr, ptr, ptr, ptr, ptr, ptr, ptr, [5 x i32], i32, float, float, float, float, i32, float, i32, i32, [4 x ptr], ptr, i32, i32, i32, ptr, [3 x [32 x i32]], i32, i32, i32, ptr, ptr, ptr, ptr, ptr, ptr, ptr, i32, i32, i32, [16 x i32], i32, i32, i32, i32, ptr, ptr, ptr, ptr, ptr, i32, i32, [32 x i32], [32 x i32], i32, i32, i32, i32, ptr, [16 x ptr], [16 x ptr], [16 x ptr], [16 x ptr], [16 x ptr], [16 x ptr], [16 x ptr], ptr, ptr, ptr, ptr, [32 x i8], i32, i32, i32, [6 x i64], [2 x i32], [2 x i32], ptr, [15 x i32], ptr, ptr, ptr, [16 x i32], ptr, ptr, ptr, ptr, [2 x i32], [2 x i32], [2 x ptr], ptr }
%struct.If_Obj_t_ = type { i32, i32, i32, i32, i32, i32, ptr, ptr, ptr, float, float, float, %union.anon, ptr, %struct.If_Cut_t_ }
%union.anon = type { ptr }
%struct.Vec_Ptr_t_ = type { i32, i32, ptr }

; Function Attrs: inlinehint nounwind uwtable
define internal ptr @Vec_PtrEntry(ptr noundef %0, i32 noundef %1) #2 {
  %3 = alloca ptr, align 8
  %4 = alloca i32, align 4
  store ptr %0, ptr %3, align 8, !tbaa !81
  store i32 %1, ptr %4, align 4, !tbaa !14
  %5 = load ptr, ptr %3, align 8, !tbaa !81
  %6 = getelementptr inbounds nuw %struct.Vec_Ptr_t_, ptr %5, i32 0, i32 2
  %7 = load ptr, ptr %6, align 8, !tbaa !82
  %8 = load i32, ptr %4, align 4, !tbaa !14
  %9 = sext i32 %8 to i64
  %10 = getelementptr inbounds ptr, ptr %7, i64 %9
  %11 = load ptr, ptr %10, align 8, !tbaa !84
  ret ptr %11
}

; Function Attrs: inlinehint nounwind uwtable
define internal ptr @If_ObjCutBest(ptr noundef %0) #2 {
  %2 = alloca ptr, align 8
  store ptr %0, ptr %2, align 8, !tbaa !16
  %3 = load ptr, ptr %2, align 8, !tbaa !16
  %4 = getelementptr inbounds nuw %struct.If_Obj_t_, ptr %3, i32 0, i32 14
  ret ptr %4
}

; Function Attrs: inlinehint nounwind uwtable
define internal ptr @If_ManObj(ptr noundef %0, i32 noundef %1) #2 {
  %3 = alloca ptr, align 8
  %4 = alloca i32, align 4
  store ptr %0, ptr %3, align 8, !tbaa !3
  store i32 %1, ptr %4, align 4, !tbaa !14
  %5 = load ptr, ptr %3, align 8, !tbaa !3
  %6 = getelementptr inbounds nuw %struct.If_Man_t_, ptr %5, i32 0, i32 5
  %7 = load ptr, ptr %6, align 8, !tbaa !26
  %8 = load i32, ptr %4, align 4, !tbaa !14
  %9 = call ptr @Vec_PtrEntry(ptr noundef %7, i32 noundef %8)
  ret ptr %9
}

; Function Attrs: nounwind uwtable
define void @If_CutSortInputPins(ptr noundef %0, ptr noundef %1, ptr noundef %2, ptr noundef %3) #0 {
  %5 = alloca ptr, align 8
  %6 = alloca ptr, align 8
  %7 = alloca ptr, align 8
  %8 = alloca ptr, align 8
  %9 = alloca ptr, align 8
  %10 = alloca i32, align 4
  %11 = alloca i32, align 4
  %12 = alloca i32, align 4
  %13 = alloca i32, align 4
  store ptr %0, ptr %5, align 8, !tbaa !3
  store ptr %1, ptr %6, align 8, !tbaa !8
  store ptr %2, ptr %7, align 8, !tbaa !10
  store ptr %3, ptr %8, align 8, !tbaa !12
  call void @llvm.lifetime.start.p0(i64 8, ptr %9) #7
  call void @llvm.lifetime.start.p0(i64 4, ptr %10) #7
  call void @llvm.lifetime.start.p0(i64 4, ptr %11) #7
  call void @llvm.lifetime.start.p0(i64 4, ptr %12) #7
  call void @llvm.lifetime.start.p0(i64 4, ptr %13) #7
  store i32 0, ptr %10, align 4, !tbaa !14
  br label %14

14:                                               ; preds = %49, %4
  %15 = load i32, ptr %10, align 4, !tbaa !14
  %16 = load ptr, ptr %6, align 8, !tbaa !8
  %17 = getelementptr inbounds nuw %struct.If_Cut_t_, ptr %16, i32 0, i32 7
  %18 = load i64, ptr %17, align 4
  %19 = lshr i64 %18, 24
  %20 = and i64 %19, 255
  %21 = trunc i64 %20 to i32
  %22 = icmp slt i32 %15, %21
  br i1 %22, label %23, label %33

23:                                               ; preds = %14
  %24 = load ptr, ptr %5, align 8, !tbaa !3
  %25 = load ptr, ptr %6, align 8, !tbaa !8
  %26 = getelementptr inbounds nuw %struct.If_Cut_t_, ptr %25, i32 0, i32 8
  %27 = load i32, ptr %10, align 4, !tbaa !14
  %28 = sext i32 %27 to i64
  %29 = getelementptr inbounds [0 x i32], ptr %26, i64 0, i64 %28
  %30 = load i32, ptr %29, align 4, !tbaa !14
  %31 = call ptr @If_ManObj(ptr noundef %24, i32 noundef %30)
  store ptr %31, ptr %9, align 8, !tbaa !16
  %32 = icmp ne ptr %31, null
  br label %33

33:                                               ; preds = %23, %14
  %34 = phi i1 [ false, %14 ], [ %32, %23 ]
  br i1 %34, label %35, label %52

35:                                               ; preds = %33
  %36 = load i32, ptr %10, align 4, !tbaa !14
  %37 = load ptr, ptr %7, align 8, !tbaa !10
  %38 = load i32, ptr %10, align 4, !tbaa !14
  %39 = sext i32 %38 to i64
  %40 = getelementptr inbounds i32, ptr %37, i64 %39
  store i32 %36, ptr %40, align 4, !tbaa !14
  %41 = load ptr, ptr %9, align 8, !tbaa !16
  %42 = call ptr @If_ObjCutBest(ptr noundef %41)
  %43 = getelementptr inbounds nuw %struct.If_Cut_t_, ptr %42, i32 0, i32 3
  %44 = load float, ptr %43, align 4, !tbaa !18
  %45 = load ptr, ptr %8, align 8, !tbaa !12
  %46 = load i32, ptr %10, align 4, !tbaa !14
  %47 = sext i32 %46 to i64
  %48 = getelementptr inbounds float, ptr %45, i64 %47
  store float %44, ptr %48, align 4, !tbaa !21
  br label %49

49:                                               ; preds = %35
  %50 = load i32, ptr %10, align 4, !tbaa !14
  %51 = add nsw i32 %50, 1
  store i32 %51, ptr %10, align 4, !tbaa !14
  br label %14, !llvm.loop !22

52:                                               ; preds = %33
  store i32 0, ptr %10, align 4, !tbaa !14
  br label %53

53:                                               ; preds = %127, %52
  %54 = load i32, ptr %10, align 4, !tbaa !14
  %55 = load ptr, ptr %6, align 8, !tbaa !8
  %56 = getelementptr inbounds nuw %struct.If_Cut_t_, ptr %55, i32 0, i32 7
  %57 = load i64, ptr %56, align 4
  %58 = lshr i64 %57, 24
  %59 = and i64 %58, 255
  %60 = trunc i64 %59 to i32
  %61 = sub nsw i32 %60, 1
  %62 = icmp slt i32 %54, %61
  br i1 %62, label %63, label %130

63:                                               ; preds = %53
  %64 = load i32, ptr %10, align 4, !tbaa !14
  store i32 %64, ptr %12, align 4, !tbaa !14
  %65 = load i32, ptr %10, align 4, !tbaa !14
  %66 = add nsw i32 %65, 1
  store i32 %66, ptr %11, align 4, !tbaa !14
  br label %67

67:                                               ; preds = %99, %63
  %68 = load i32, ptr %11, align 4, !tbaa !14
  %69 = load ptr, ptr %6, align 8, !tbaa !8
  %70 = getelementptr inbounds nuw %struct.If_Cut_t_, ptr %69, i32 0, i32 7
  %71 = load i64, ptr %70, align 4
  %72 = lshr i64 %71, 24
  %73 = and i64 %72, 255
  %74 = trunc i64 %73 to i32
  %75 = icmp slt i32 %68, %74
  br i1 %75, label %76, label %102

76:                                               ; preds = %67
  %77 = load ptr, ptr %8, align 8, !tbaa !12
  %78 = load ptr, ptr %7, align 8, !tbaa !10
  %79 = load i32, ptr %11, align 4, !tbaa !14
  %80 = sext i32 %79 to i64
  %81 = getelementptr inbounds i32, ptr %78, i64 %80
  %82 = load i32, ptr %81, align 4, !tbaa !14
  %83 = sext i32 %82 to i64
  %84 = getelementptr inbounds float, ptr %77, i64 %83
  %85 = load float, ptr %84, align 4, !tbaa !21
  %86 = load ptr, ptr %8, align 8, !tbaa !12
  %87 = load ptr, ptr %7, align 8, !tbaa !10
  %88 = load i32, ptr %12, align 4, !tbaa !14
  %89 = sext i32 %88 to i64
  %90 = getelementptr inbounds i32, ptr %87, i64 %89
  %91 = load i32, ptr %90, align 4, !tbaa !14
  %92 = sext i32 %91 to i64
  %93 = getelementptr inbounds float, ptr %86, i64 %92
  %94 = load float, ptr %93, align 4, !tbaa !21
  %95 = fcmp ogt float %85, %94
  br i1 %95, label %96, label %98

96:                                               ; preds = %76
  %97 = load i32, ptr %11, align 4, !tbaa !14
  store i32 %97, ptr %12, align 4, !tbaa !14
  br label %98

98:                                               ; preds = %96, %76
  br label %99

99:                                               ; preds = %98
  %100 = load i32, ptr %11, align 4, !tbaa !14
  %101 = add nsw i32 %100, 1
  store i32 %101, ptr %11, align 4, !tbaa !14
  br label %67, !llvm.loop !24

102:                                              ; preds = %67
  %103 = load i32, ptr %12, align 4, !tbaa !14
  %104 = load i32, ptr %10, align 4, !tbaa !14
  %105 = icmp eq i32 %103, %104
  br i1 %105, label %106, label %107

106:                                              ; preds = %102
  br label %127

107:                                              ; preds = %102
  %108 = load ptr, ptr %7, align 8, !tbaa !10
  %109 = load i32, ptr %10, align 4, !tbaa !14
  %110 = sext i32 %109 to i64
  %111 = getelementptr inbounds i32, ptr %108, i64 %110
  %112 = load i32, ptr %111, align 4, !tbaa !14
  store i32 %112, ptr %13, align 4, !tbaa !14
  %113 = load ptr, ptr %7, align 8, !tbaa !10
  %114 = load i32, ptr %12, align 4, !tbaa !14
  %115 = sext i32 %114 to i64
  %116 = getelementptr inbounds i32, ptr %113, i64 %115
  %117 = load i32, ptr %116, align 4, !tbaa !14
  %118 = load ptr, ptr %7, align 8, !tbaa !10
  %119 = load i32, ptr %10, align 4, !tbaa !14
  %120 = sext i32 %119 to i64
  %121 = getelementptr inbounds i32, ptr %118, i64 %120
  store i32 %117, ptr %121, align 4, !tbaa !14
  %122 = load i32, ptr %13, align 4, !tbaa !14
  %123 = load ptr, ptr %7, align 8, !tbaa !10
  %124 = load i32, ptr %12, align 4, !tbaa !14
  %125 = sext i32 %124 to i64
  %126 = getelementptr inbounds i32, ptr %123, i64 %125
  store i32 %122, ptr %126, align 4, !tbaa !14
  br label %127

127:                                              ; preds = %107, %106
  %128 = load i32, ptr %10, align 4, !tbaa !14
  %129 = add nsw i32 %128, 1
  store i32 %129, ptr %10, align 4, !tbaa !14
  br label %53, !llvm.loop !25

130:                                              ; preds = %53
  call void @llvm.lifetime.end.p0(i64 4, ptr %13) #7
  call void @llvm.lifetime.end.p0(i64 4, ptr %12) #7
  call void @llvm.lifetime.end.p0(i64 4, ptr %11) #7
  call void @llvm.lifetime.end.p0(i64 4, ptr %10) #7
  call void @llvm.lifetime.end.p0(i64 8, ptr %9) #7
  ret void
}