; Function Attrs: nofree norecurse nosync nounwind memory(read, argmem: readwrite, inaccessiblemem: none) uwtable
define void @If_CutSortInputPins(ptr noundef readonly captures(none) %0, ptr noundef readonly captures(none) %1, ptr noundef captures(none) %2, ptr noundef captures(none) %3) local_unnamed_addr #0 {
  %5 = getelementptr inbounds nuw i8, ptr %1, i64 36
  %6 = getelementptr inbounds nuw i8, ptr %1, i64 28
  %7 = load i64, ptr %6, align 4
  %8 = and i64 %7, 4278190080
  %.not49 = icmp eq i64 %8, 0
  br i1 %.not49, label %.critedge, label %.lr.ph

.lr.ph:                                           ; preds = %4
  %9 = getelementptr i8, ptr %0, i64 40
  %.val = load ptr, ptr %9, align 8, !tbaa !3
  %10 = getelementptr i8, ptr %.val, i64 8
  %.val.val = load ptr, ptr %10, align 8, !tbaa !24
  %11 = load i32, ptr %5, align 4, !tbaa !26
  %12 = sext i32 %11 to i64
  %13 = getelementptr inbounds ptr, ptr %.val.val, i64 %12
  %14 = load ptr, ptr %13, align 8, !tbaa !27
  %.not59 = icmp eq ptr %14, null
  br i1 %.not59, label %.critedge, label %.lr.ph61

15:                                               ; preds = %.lr.ph61
  %16 = getelementptr inbounds nuw [0 x i32], ptr %5, i64 0, i64 %indvars.iv.next
  %17 = load i32, ptr %16, align 4, !tbaa !26
  %18 = sext i32 %17 to i64
  %19 = getelementptr inbounds ptr, ptr %.val.val, i64 %18
  %20 = load ptr, ptr %19, align 8, !tbaa !27
  %.not = icmp eq ptr %20, null
  br i1 %.not, label %.critedge, label %.lr.ph61, !llvm.loop !28

.lr.ph61:                                         ; preds = %.lr.ph, %15
  %21 = phi ptr [ %20, %15 ], [ %14, %.lr.ph ]
  %indvars.iv60 = phi i64 [ %indvars.iv.next, %15 ], [ 0, %.lr.ph ]
  %22 = getelementptr inbounds nuw i32, ptr %2, i64 %indvars.iv60
  %23 = trunc nuw nsw i64 %indvars.iv60 to i32
  store i32 %23, ptr %22, align 4, !tbaa !26
  %24 = getelementptr inbounds nuw i8, ptr %21, i64 92
  %25 = load float, ptr %24, align 4, !tbaa !30
  %26 = getelementptr inbounds nuw float, ptr %3, i64 %indvars.iv60
  store float %25, ptr %26, align 4, !tbaa !32
  %indvars.iv.next = add nuw nsw i64 %indvars.iv60, 1
  %27 = load i64, ptr %6, align 4
  %28 = lshr i64 %27, 24
  %29 = and i64 %28, 255
  %30 = icmp samesign ult i64 %indvars.iv.next, %29
  br i1 %30, label %15, label %.critedge, !llvm.loop !28

.critedge:                                        ; preds = %.lr.ph61, %15, %.lr.ph, %4
  %31 = phi i64 [ %7, %4 ], [ %7, %.lr.ph ], [ %27, %15 ], [ %27, %.lr.ph61 ]
  %32 = trunc i64 %31 to i32
  %33 = icmp ugt i32 %32, 33554431
  br i1 %33, label %.lr.ph47.preheader, label %._crit_edge48

.lr.ph47.preheader:                               ; preds = %.critedge
  %34 = lshr i32 %32, 24
  br label %.lr.ph47

.lr.ph47:                                         ; preds = %.lr.ph47.preheader, %61
  %35 = phi i64 [ %31, %.lr.ph47.preheader ], [ %62, %61 ]
  %indvars.iv56 = phi i64 [ 0, %.lr.ph47.preheader ], [ %indvars.iv.next57, %61 ]
  %indvars.iv51 = phi i64 [ 1, %.lr.ph47.preheader ], [ %indvars.iv.next52, %61 ]
  %36 = phi i32 [ %34, %.lr.ph47.preheader ], [ %64, %61 ]
  %indvars.iv.next57 = add nuw nsw i64 %indvars.iv56, 1
  %37 = zext nneg i32 %36 to i64
  %38 = icmp samesign ult i64 %indvars.iv.next57, %37
  %39 = trunc nuw nsw i64 %indvars.iv56 to i32
  br i1 %38, label %.lr.ph45, label %._crit_edge

.lr.ph45:                                         ; preds = %.lr.ph47, %.lr.ph45
  %indvars.iv53 = phi i64 [ %indvars.iv.next54, %.lr.ph45 ], [ %indvars.iv51, %.lr.ph47 ]
  %.03744 = phi i32 [ %.138, %.lr.ph45 ], [ %39, %.lr.ph47 ]
  %40 = getelementptr inbounds nuw i32, ptr %2, i64 %indvars.iv53
  %41 = load i32, ptr %40, align 4, !tbaa !26
  %42 = sext i32 %41 to i64
  %43 = getelementptr inbounds float, ptr %3, i64 %42
  %44 = load float, ptr %43, align 4, !tbaa !32
  %45 = sext i32 %.03744 to i64
  %46 = getelementptr inbounds i32, ptr %2, i64 %45
  %47 = load i32, ptr %46, align 4, !tbaa !26
  %48 = sext i32 %47 to i64
  %49 = getelementptr inbounds float, ptr %3, i64 %48
  %50 = load float, ptr %49, align 4, !tbaa !32
  %51 = fcmp ogt float %44, %50
  %52 = trunc nuw nsw i64 %indvars.iv53 to i32
  %.138 = select i1 %51, i32 %52, i32 %.03744
  %indvars.iv.next54 = add nuw nsw i64 %indvars.iv53, 1
  %exitcond.not = icmp eq i64 %indvars.iv.next54, %37
  br i1 %exitcond.not, label %._crit_edge, label %.lr.ph45, !llvm.loop !33

._crit_edge:                                      ; preds = %.lr.ph45, %.lr.ph47
  %.037.lcssa = phi i32 [ %39, %.lr.ph47 ], [ %.138, %.lr.ph45 ]
  %53 = zext i32 %.037.lcssa to i64
  %54 = icmp eq i64 %indvars.iv56, %53
  br i1 %54, label %61, label %55

55:                                               ; preds = %._crit_edge
  %56 = getelementptr inbounds nuw i32, ptr %2, i64 %indvars.iv56
  %57 = load i32, ptr %56, align 4, !tbaa !26
  %58 = sext i32 %.037.lcssa to i64
  %59 = getelementptr inbounds i32, ptr %2, i64 %58
  %60 = load i32, ptr %59, align 4, !tbaa !26
  store i32 %60, ptr %56, align 4, !tbaa !26
  store i32 %57, ptr %59, align 4, !tbaa !26
  %.pre = load i64, ptr %6, align 4
  br label %61

61:                                               ; preds = %._crit_edge, %55
  %62 = phi i64 [ %35, %._crit_edge ], [ %.pre, %55 ]
  %63 = trunc i64 %62 to i32
  %64 = lshr i32 %63, 24
  %65 = add nsw i32 %64, -1
  %66 = sext i32 %65 to i64
  %67 = icmp slt i64 %indvars.iv.next57, %66
  %indvars.iv.next52 = add nuw nsw i64 %indvars.iv51, 1
  br i1 %67, label %.lr.ph47, label %._crit_edge48, !llvm.loop !34

._crit_edge48:                                    ; preds = %61, %.critedge
  ret void
}